
rev:     file format elf64-x86-64


Disassembly of section .init:

0000000000001000 <_init>:
    1000:	48 83 ec 08          	sub    rsp,0x8
    1004:	48 8b 05 dd 2f 00 00 	mov    rax,QWORD PTR [rip+0x2fdd]        # 3fe8 <__gmon_start__>
    100b:	48 85 c0             	test   rax,rax
    100e:	74 02                	je     1012 <_init+0x12>
    1010:	ff d0                	call   rax
    1012:	48 83 c4 08          	add    rsp,0x8
    1016:	c3                   	ret    

Disassembly of section .plt:

0000000000001020 <.plt>:
    1020:	ff 35 7a 2f 00 00    	push   QWORD PTR [rip+0x2f7a]        # 3fa0 <_GLOBAL_OFFSET_TABLE_+0x8>
    1026:	ff 25 7c 2f 00 00    	jmp    QWORD PTR [rip+0x2f7c]        # 3fa8 <_GLOBAL_OFFSET_TABLE_+0x10>
    102c:	0f 1f 40 00          	nop    DWORD PTR [rax+0x0]

0000000000001030 <puts@plt>:
    1030:	ff 25 7a 2f 00 00    	jmp    QWORD PTR [rip+0x2f7a]        # 3fb0 <puts@GLIBC_2.2.5>
    1036:	68 00 00 00 00       	push   0x0
    103b:	e9 e0 ff ff ff       	jmp    1020 <.plt>

0000000000001040 <strlen@plt>:
    1040:	ff 25 72 2f 00 00    	jmp    QWORD PTR [rip+0x2f72]        # 3fb8 <strlen@GLIBC_2.2.5>
    1046:	68 01 00 00 00       	push   0x1
    104b:	e9 d0 ff ff ff       	jmp    1020 <.plt>

0000000000001050 <__stack_chk_fail@plt>:
    1050:	ff 25 6a 2f 00 00    	jmp    QWORD PTR [rip+0x2f6a]        # 3fc0 <__stack_chk_fail@GLIBC_2.4>
    1056:	68 02 00 00 00       	push   0x2
    105b:	e9 c0 ff ff ff       	jmp    1020 <.plt>

0000000000001060 <calloc@plt>:
    1060:	ff 25 62 2f 00 00    	jmp    QWORD PTR [rip+0x2f62]        # 3fc8 <calloc@GLIBC_2.2.5>
    1066:	68 03 00 00 00       	push   0x3
    106b:	e9 b0 ff ff ff       	jmp    1020 <.plt>

0000000000001070 <__isoc99_scanf@plt>:
    1070:	ff 25 5a 2f 00 00    	jmp    QWORD PTR [rip+0x2f5a]        # 3fd0 <__isoc99_scanf@GLIBC_2.7>
    1076:	68 04 00 00 00       	push   0x4
    107b:	e9 a0 ff ff ff       	jmp    1020 <.plt>

Disassembly of section .plt.got:

0000000000001080 <__cxa_finalize@plt>:
    1080:	ff 25 72 2f 00 00    	jmp    QWORD PTR [rip+0x2f72]        # 3ff8 <__cxa_finalize@GLIBC_2.2.5>
    1086:	66 90                	xchg   ax,ax

Disassembly of section .text:

0000000000001090 <_start>:
    1090:	31 ed                	xor    ebp,ebp
    1092:	49 89 d1             	mov    r9,rdx
    1095:	5e                   	pop    rsi
    1096:	48 89 e2             	mov    rdx,rsp
    1099:	48 83 e4 f0          	and    rsp,0xfffffffffffffff0
    109d:	50                   	push   rax
    109e:	54                   	push   rsp
    109f:	4c 8d 05 8a 02 00 00 	lea    r8,[rip+0x28a]        # 1330 <__libc_csu_fini>
    10a6:	48 8d 0d 23 02 00 00 	lea    rcx,[rip+0x223]        # 12d0 <__libc_csu_init>
    10ad:	48 8d 3d c1 00 00 00 	lea    rdi,[rip+0xc1]        # 1175 <main>
    10b4:	ff 15 26 2f 00 00    	call   QWORD PTR [rip+0x2f26]        # 3fe0 <__libc_start_main@GLIBC_2.2.5>
    10ba:	f4                   	hlt    
    10bb:	0f 1f 44 00 00       	nop    DWORD PTR [rax+rax*1+0x0]

00000000000010c0 <deregister_tm_clones>:
    10c0:	48 8d 3d 49 2f 00 00 	lea    rdi,[rip+0x2f49]        # 4010 <__TMC_END__>
    10c7:	48 8d 05 42 2f 00 00 	lea    rax,[rip+0x2f42]        # 4010 <__TMC_END__>
    10ce:	48 39 f8             	cmp    rax,rdi
    10d1:	74 15                	je     10e8 <deregister_tm_clones+0x28>
    10d3:	48 8b 05 fe 2e 00 00 	mov    rax,QWORD PTR [rip+0x2efe]        # 3fd8 <_ITM_deregisterTMCloneTable>
    10da:	48 85 c0             	test   rax,rax
    10dd:	74 09                	je     10e8 <deregister_tm_clones+0x28>
    10df:	ff e0                	jmp    rax
    10e1:	0f 1f 80 00 00 00 00 	nop    DWORD PTR [rax+0x0]
    10e8:	c3                   	ret    
    10e9:	0f 1f 80 00 00 00 00 	nop    DWORD PTR [rax+0x0]

00000000000010f0 <register_tm_clones>:
    10f0:	48 8d 3d 19 2f 00 00 	lea    rdi,[rip+0x2f19]        # 4010 <__TMC_END__>
    10f7:	48 8d 35 12 2f 00 00 	lea    rsi,[rip+0x2f12]        # 4010 <__TMC_END__>
    10fe:	48 29 fe             	sub    rsi,rdi
    1101:	48 c1 fe 03          	sar    rsi,0x3
    1105:	48 89 f0             	mov    rax,rsi
    1108:	48 c1 e8 3f          	shr    rax,0x3f
    110c:	48 01 c6             	add    rsi,rax
    110f:	48 d1 fe             	sar    rsi,1
    1112:	74 14                	je     1128 <register_tm_clones+0x38>
    1114:	48 8b 05 d5 2e 00 00 	mov    rax,QWORD PTR [rip+0x2ed5]        # 3ff0 <_ITM_registerTMCloneTable>
    111b:	48 85 c0             	test   rax,rax
    111e:	74 08                	je     1128 <register_tm_clones+0x38>
    1120:	ff e0                	jmp    rax
    1122:	66 0f 1f 44 00 00    	nop    WORD PTR [rax+rax*1+0x0]
    1128:	c3                   	ret    
    1129:	0f 1f 80 00 00 00 00 	nop    DWORD PTR [rax+0x0]

0000000000001130 <__do_global_dtors_aux>:
    1130:	80 3d d9 2e 00 00 00 	cmp    BYTE PTR [rip+0x2ed9],0x0        # 4010 <__TMC_END__>
    1137:	75 2f                	jne    1168 <__do_global_dtors_aux+0x38>
    1139:	55                   	push   rbp
    113a:	48 83 3d b6 2e 00 00 	cmp    QWORD PTR [rip+0x2eb6],0x0        # 3ff8 <__cxa_finalize@GLIBC_2.2.5>
    1141:	00 
    1142:	48 89 e5             	mov    rbp,rsp
    1145:	74 0c                	je     1153 <__do_global_dtors_aux+0x23>
    1147:	48 8b 3d ba 2e 00 00 	mov    rdi,QWORD PTR [rip+0x2eba]        # 4008 <__dso_handle>
    114e:	e8 2d ff ff ff       	call   1080 <__cxa_finalize@plt>
    1153:	e8 68 ff ff ff       	call   10c0 <deregister_tm_clones>
    1158:	c6 05 b1 2e 00 00 01 	mov    BYTE PTR [rip+0x2eb1],0x1        # 4010 <__TMC_END__>
    115f:	5d                   	pop    rbp
    1160:	c3                   	ret    
    1161:	0f 1f 80 00 00 00 00 	nop    DWORD PTR [rax+0x0]
    1168:	c3                   	ret    
    1169:	0f 1f 80 00 00 00 00 	nop    DWORD PTR [rax+0x0]

0000000000001170 <frame_dummy>:
    1170:	e9 7b ff ff ff       	jmp    10f0 <register_tm_clones>

0000000000001175 <main>:
    1175:	55                   	push   rbp
    1176:	48 89 e5             	mov    rbp,rsp
    1179:	48 83 ec 10          	sub    rsp,0x10
    117d:	be 01 00 00 00       	mov    esi,0x1
    1182:	bf 32 00 00 00       	mov    edi,0x32
    1187:	e8 d4 fe ff ff       	call   1060 <calloc@plt>
    118c:	48 89 45 f8          	mov    QWORD PTR [rbp-0x8],rax
    1190:	48 8d 3d 71 0e 00 00 	lea    rdi,[rip+0xe71]        # 2008 <_IO_stdin_used+0x8>
    1197:	e8 94 fe ff ff       	call   1030 <puts@plt>
    119c:	48 8b 45 f8          	mov    rax,QWORD PTR [rbp-0x8]
    11a0:	48 89 c6             	mov    rsi,rax
    11a3:	48 8d 3d 91 0e 00 00 	lea    rdi,[rip+0xe91]        # 203b <_IO_stdin_used+0x3b>
    11aa:	b8 00 00 00 00       	mov    eax,0x0
    11af:	e8 bc fe ff ff       	call   1070 <__isoc99_scanf@plt>
    11b4:	48 8b 45 f8          	mov    rax,QWORD PTR [rbp-0x8]
    11b8:	48 89 c7             	mov    rdi,rax
    11bb:	e8 2a 00 00 00       	call   11ea <validate>
    11c0:	85 c0                	test   eax,eax
    11c2:	74 13                	je     11d7 <main+0x62>
    11c4:	48 8d 3d 73 0e 00 00 	lea    rdi,[rip+0xe73]        # 203e <_IO_stdin_used+0x3e>
    11cb:	e8 60 fe ff ff       	call   1030 <puts@plt>
    11d0:	b8 00 00 00 00       	mov    eax,0x0
    11d5:	eb 11                	jmp    11e8 <main+0x73>
    11d7:	48 8d 3d 72 0e 00 00 	lea    rdi,[rip+0xe72]        # 2050 <_IO_stdin_used+0x50>
    11de:	e8 4d fe ff ff       	call   1030 <puts@plt>
    11e3:	b8 01 00 00 00       	mov    eax,0x1
    11e8:	c9                   	leave  
    11e9:	c3                   	ret    

00000000000011ea <validate>:
    11ea:	55                   	push   rbp
    11eb:	48 89 e5             	mov    rbp,rsp
    11ee:	48 83 ec 60          	sub    rsp,0x60
    11f2:	48 89 7d a8          	mov    QWORD PTR [rbp-0x58],rdi
    11f6:	64 48 8b 04 25 28 00 	mov    rax,QWORD PTR fs:0x28
    11fd:	00 00 
    11ff:	48 89 45 f8          	mov    QWORD PTR [rbp-0x8],rax
    1203:	31 c0                	xor    eax,eax
    1205:	c7 45 c0 66 00 00 00 	mov    DWORD PTR [rbp-0x40],0x66
    120c:	c7 45 c4 6c 00 00 00 	mov    DWORD PTR [rbp-0x3c],0x6c
    1213:	c7 45 c8 61 00 00 00 	mov    DWORD PTR [rbp-0x38],0x61
    121a:	c7 45 cc 67 00 00 00 	mov    DWORD PTR [rbp-0x34],0x67
    1221:	c7 45 d0 7b 00 00 00 	mov    DWORD PTR [rbp-0x30],0x7b
    1228:	c7 45 d4 48 00 00 00 	mov    DWORD PTR [rbp-0x2c],0x48
    122f:	c7 45 d8 75 00 00 00 	mov    DWORD PTR [rbp-0x28],0x75
    1236:	c7 45 dc 43 00 00 00 	mov    DWORD PTR [rbp-0x24],0x43
    123d:	c7 45 e0 66 00 00 00 	mov    DWORD PTR [rbp-0x20],0x66
    1244:	c7 45 e4 5f 00 00 00 	mov    DWORD PTR [rbp-0x1c],0x5f
    124b:	c7 45 e8 6c 00 00 00 	mov    DWORD PTR [rbp-0x18],0x6c
    1252:	c7 45 ec 41 00 00 00 	mov    DWORD PTR [rbp-0x14],0x41
    1259:	c7 45 f0 62 00 00 00 	mov    DWORD PTR [rbp-0x10],0x62
    1260:	c7 45 f4 7d 00 00 00 	mov    DWORD PTR [rbp-0xc],0x7d
    1267:	48 8b 45 a8          	mov    rax,QWORD PTR [rbp-0x58]
    126b:	48 89 c7             	mov    rdi,rax
    126e:	e8 cd fd ff ff       	call   1040 <strlen@plt>
    1273:	89 45 bc             	mov    DWORD PTR [rbp-0x44],eax
    1276:	c7 45 b8 00 00 00 00 	mov    DWORD PTR [rbp-0x48],0x0
    127d:	eb 2b                	jmp    12aa <validate+0xc0>
    127f:	8b 45 b8             	mov    eax,DWORD PTR [rbp-0x48]
    1282:	48 63 d0             	movsxd rdx,eax
    1285:	48 8b 45 a8          	mov    rax,QWORD PTR [rbp-0x58]
    1289:	48 01 d0             	add    rax,rdx
    128c:	0f b6 00             	movzx  eax,BYTE PTR [rax]
    128f:	0f be d0             	movsx  edx,al
    1292:	8b 45 b8             	mov    eax,DWORD PTR [rbp-0x48]
    1295:	48 98                	cdqe   
    1297:	8b 44 85 c0          	mov    eax,DWORD PTR [rbp+rax*4-0x40]
    129b:	39 c2                	cmp    edx,eax
    129d:	74 07                	je     12a6 <validate+0xbc>
    129f:	b8 00 00 00 00       	mov    eax,0x0
    12a4:	eb 11                	jmp    12b7 <validate+0xcd>
    12a6:	83 45 b8 01          	add    DWORD PTR [rbp-0x48],0x1
    12aa:	8b 45 b8             	mov    eax,DWORD PTR [rbp-0x48]
    12ad:	3b 45 bc             	cmp    eax,DWORD PTR [rbp-0x44]
    12b0:	7c cd                	jl     127f <validate+0x95>
    12b2:	b8 01 00 00 00       	mov    eax,0x1
    12b7:	48 8b 4d f8          	mov    rcx,QWORD PTR [rbp-0x8]
    12bb:	64 48 33 0c 25 28 00 	xor    rcx,QWORD PTR fs:0x28
    12c2:	00 00 
    12c4:	74 05                	je     12cb <validate+0xe1>
    12c6:	e8 85 fd ff ff       	call   1050 <__stack_chk_fail@plt>
    12cb:	c9                   	leave  
    12cc:	c3                   	ret    
    12cd:	0f 1f 00             	nop    DWORD PTR [rax]

00000000000012d0 <__libc_csu_init>:
    12d0:	41 57                	push   r15
    12d2:	49 89 d7             	mov    r15,rdx
    12d5:	41 56                	push   r14
    12d7:	49 89 f6             	mov    r14,rsi
    12da:	41 55                	push   r13
    12dc:	41 89 fd             	mov    r13d,edi
    12df:	41 54                	push   r12
    12e1:	4c 8d 25 b0 2a 00 00 	lea    r12,[rip+0x2ab0]        # 3d98 <__frame_dummy_init_array_entry>
    12e8:	55                   	push   rbp
    12e9:	48 8d 2d b0 2a 00 00 	lea    rbp,[rip+0x2ab0]        # 3da0 <__do_global_dtors_aux_fini_array_entry>
    12f0:	53                   	push   rbx
    12f1:	4c 29 e5             	sub    rbp,r12
    12f4:	48 83 ec 08          	sub    rsp,0x8
    12f8:	e8 03 fd ff ff       	call   1000 <_init>
    12fd:	48 c1 fd 03          	sar    rbp,0x3
    1301:	74 1b                	je     131e <__libc_csu_init+0x4e>
    1303:	31 db                	xor    ebx,ebx
    1305:	0f 1f 00             	nop    DWORD PTR [rax]
    1308:	4c 89 fa             	mov    rdx,r15
    130b:	4c 89 f6             	mov    rsi,r14
    130e:	44 89 ef             	mov    edi,r13d
    1311:	41 ff 14 dc          	call   QWORD PTR [r12+rbx*8]
    1315:	48 83 c3 01          	add    rbx,0x1
    1319:	48 39 dd             	cmp    rbp,rbx
    131c:	75 ea                	jne    1308 <__libc_csu_init+0x38>
    131e:	48 83 c4 08          	add    rsp,0x8
    1322:	5b                   	pop    rbx
    1323:	5d                   	pop    rbp
    1324:	41 5c                	pop    r12
    1326:	41 5d                	pop    r13
    1328:	41 5e                	pop    r14
    132a:	41 5f                	pop    r15
    132c:	c3                   	ret    
    132d:	0f 1f 00             	nop    DWORD PTR [rax]

0000000000001330 <__libc_csu_fini>:
    1330:	c3                   	ret    

Disassembly of section .fini:

0000000000001334 <_fini>:
    1334:	48 83 ec 08          	sub    rsp,0x8
    1338:	48 83 c4 08          	add    rsp,0x8
    133c:	c3                   	ret    
